; Function Attrs: nounwind sspstrong uwtable
define internal noundef ptr @lazy_zip_func(i64 noundef %0, ptr noundef returned %1, i64 noundef %2, i64 noundef %3) #0 {
  %5 = tail call ptr @rb_check_typeddata(i64 noundef %0, ptr noundef nonnull @proc_entry_data_type) #18
  %6 = tail call i64 @rb_ary_entry(i64 noundef %2, i64 noundef %3) #25
  %7 = icmp eq i64 %6, 4
  br i1 %7, label %8, label %40

8:                                                ; preds = %4
  %9 = getelementptr inbounds nuw i8, ptr %5, i64 8
  %10 = load i64, ptr %9, align 8, !tbaa !94
  %11 = inttoptr i64 %10 to ptr
  %12 = load i64, ptr %11, align 8, !tbaa !21
  %13 = and i64 %12, 8192
  %.not.i = icmp eq i64 %13, 0
  br i1 %.not.i, label %17, label %14

14:                                               ; preds = %8
  %15 = lshr i64 %12, 15
  %16 = and i64 %15, 127
  br label %rb_array_len.exit

17:                                               ; preds = %8
  %18 = getelementptr inbounds nuw i8, ptr %11, i64 16
  %19 = load i64, ptr %18, align 8, !tbaa !44
  br label %rb_array_len.exit

rb_array_len.exit:                                ; preds = %14, %17
  %.0.i = phi i64 [ %16, %14 ], [ %19, %17 ]
  %20 = tail call i64 @rb_ary_new_capa(i64 noundef %.0.i) #18
  %21 = getelementptr inbounds nuw i8, ptr %11, i64 16
  %22 = getelementptr inbounds nuw i8, ptr %11, i64 32
  br label %23

23:                                               ; preds = %RARRAY_AREF.exit, %rb_array_len.exit
  %.0 = phi i64 [ 0, %rb_array_len.exit ], [ %38, %RARRAY_AREF.exit ]
  %24 = load i64, ptr %11, align 8, !tbaa !21
  %25 = and i64 %24, 8192
  %.not.i28 = icmp eq i64 %25, 0
  br i1 %.not.i28, label %rb_array_len.exit30, label %rb_array_len.exit30.thread

rb_array_len.exit30:                              ; preds = %23
  %26 = load i64, ptr %21, align 8, !tbaa !44
  %27 = icmp slt i64 %.0, %26
  br i1 %27, label %31, label %39

rb_array_len.exit30.thread:                       ; preds = %23
  %28 = lshr i64 %24, 15
  %29 = and i64 %28, 127
  %30 = icmp samesign ult i64 %.0, %29
  br i1 %30, label %RARRAY_AREF.exit, label %39

31:                                               ; preds = %rb_array_len.exit30
  %32 = load ptr, ptr %22, align 8, !tbaa !44
  br label %RARRAY_AREF.exit

RARRAY_AREF.exit:                                 ; preds = %rb_array_len.exit30.thread, %31
  %.0.i.i = phi ptr [ %32, %31 ], [ %21, %rb_array_len.exit30.thread ]
  %33 = getelementptr i64, ptr %.0.i.i, i64 %.0
  %34 = load i64, ptr %33, align 8, !tbaa !7
  %35 = load i64, ptr @id_to_enum, align 8, !tbaa !7
  %36 = tail call i64 (i64, i64, i32, ...) @rb_funcall(i64 noundef %34, i64 noundef %35, i32 noundef 0) #18
  %37 = tail call i64 @rb_ary_push(i64 noundef %20, i64 noundef %36) #18
  %38 = add nuw nsw i64 %.0, 1
  br label %23, !llvm.loop !111

39:                                               ; preds = %rb_array_len.exit30.thread, %rb_array_len.exit30
  tail call void @rb_ary_store(i64 noundef %2, i64 noundef %3, i64 noundef %20) #18
  br label %40

40:                                               ; preds = %39, %4
  %.027 = phi i64 [ %20, %39 ], [ %6, %4 ]
  %41 = inttoptr i64 %.027 to ptr
  %42 = load i64, ptr %41, align 8, !tbaa !21
  %43 = and i64 %42, 8192
  %.not.i31 = icmp eq i64 %43, 0
  br i1 %.not.i31, label %47, label %44

44:                                               ; preds = %40
  %45 = lshr i64 %42, 15
  %46 = and i64 %45, 127
  br label %rb_array_len.exit33

47:                                               ; preds = %40
  %48 = getelementptr inbounds nuw i8, ptr %41, i64 16
  %49 = load i64, ptr %48, align 8, !tbaa !44
  br label %rb_array_len.exit33

rb_array_len.exit33:                              ; preds = %44, %47
  %.0.i32 = phi i64 [ %46, %44 ], [ %49, %47 ]
  %50 = add i64 %.0.i32, 1
  %51 = tail call i64 @rb_ary_new_capa(i64 noundef %50) #18
  %52 = getelementptr inbounds nuw i8, ptr %1, i64 24
  %53 = load i64, ptr %52, align 8, !tbaa !105
  %54 = tail call i64 @rb_ary_push(i64 noundef %51, i64 noundef %53) #18
  %55 = getelementptr inbounds nuw i8, ptr %41, i64 16
  %56 = getelementptr inbounds nuw i8, ptr %41, i64 32
  br label %57

57:                                               ; preds = %RARRAY_AREF.exit39, %rb_array_len.exit33
  %.1 = phi i64 [ 0, %rb_array_len.exit33 ], [ %72, %RARRAY_AREF.exit39 ]
  %58 = load i64, ptr %41, align 8, !tbaa !21
  %59 = and i64 %58, 8192
  %.not.i34 = icmp eq i64 %59, 0
  br i1 %.not.i34, label %rb_array_len.exit36, label %rb_array_len.exit36.thread

rb_array_len.exit36:                              ; preds = %57
  %60 = load i64, ptr %55, align 8, !tbaa !44
  %61 = icmp slt i64 %.1, %60
  br i1 %61, label %65, label %73

rb_array_len.exit36.thread:                       ; preds = %57
  %62 = lshr i64 %58, 15
  %63 = and i64 %62, 127
  %64 = icmp samesign ult i64 %.1, %63
  br i1 %64, label %RARRAY_AREF.exit39, label %73

65:                                               ; preds = %rb_array_len.exit36
  %66 = load ptr, ptr %56, align 8, !tbaa !44
  br label %RARRAY_AREF.exit39

RARRAY_AREF.exit39:                               ; preds = %rb_array_len.exit36.thread, %65
  %.0.i.i38 = phi ptr [ %66, %65 ], [ %55, %rb_array_len.exit36.thread ]
  %67 = getelementptr i64, ptr %.0.i.i38, i64 %.1
  %68 = load i64, ptr %67, align 8, !tbaa !7
  %69 = load i64, ptr @rb_eStopIteration, align 8, !tbaa !7
  %70 = tail call i64 (ptr, i64, ptr, i64, ...) @rb_rescue2(ptr noundef nonnull @call_next, i64 noundef %68, ptr noundef nonnull @next_stopped, i64 noundef 0, i64 noundef %69, i64 noundef 0) #18
  %71 = tail call i64 @rb_ary_push(i64 noundef %51, i64 noundef %70) #18
  %72 = add nuw nsw i64 %.1, 1
  br label %57, !llvm.loop !112

73:                                               ; preds = %rb_array_len.exit36.thread, %rb_array_len.exit36
  store i64 %51, ptr %52, align 8, !tbaa !7
  %74 = icmp eq i64 %51, 0
  %75 = and i64 %51, 7
  %76 = icmp ne i64 %75, 0
  %77 = or i1 %74, %76
  br i1 %77, label %MEMO_V2_SET.exit, label %78

78:                                               ; preds = %73
  %79 = ptrtoint ptr %1 to i64
  tail call void @rb_gc_writebarrier(i64 noundef %79, i64 noundef %51) #18
  br label %MEMO_V2_SET.exit

MEMO_V2_SET.exit:                                 ; preds = %73, %78
  ret ptr %1
}